(lp1
S'android.permission.BIND_WALLPAPER'
p2
aS'com.google.android.providers.gsf.permission.READ_GSERVICES'
p3
aS'android.permission.FORCE_BACK'
p4
aS'android.permission.READ_CALENDAR'
p5
aS'android.permission.READ_FRAME_BUFFER'
p6
aS'org.gnucash.android.permission.RECORD_TRANSACTION'
p7
aS'android.permission.DEVICE_POWER'
p8
aS'com.motorola.dlauncher.permission.INSTALL_SHORTCUT'
p9
aS'android.permission.READ_SYNC_STATS'
p10
aS'android.permission.ACCESS_COARSE_UPDATES'
p11
aS'thinkpanda.permission.CLEAR_MISSED_CALL'
p12
aS'android.permission.INTERNET'
p13
aS'android.permission.CHANGE_CONFIGURATION'
p14
aS'android.permission.CLEAR_APP_USER_DATA'
p15
aS'com.estrongs.android.pop.PERMISSION'
p16
aS'com.nilhcem.frcndict.permission.C2D_MESSAGE'
p17
aS'com.lge.launcher.permission.INSTALL_SHORTCUT'
p18
aS'android.permission.HARDWARE_TEST'
p19
aS'org.linphone.permission.C2D_MESSAGE'
p20
aS'com.android.browser.permission.WRITE_HISTORY_BOOKMARKS'
p21
aS'android.permission.ADD_SYSTEM_SERVICE'
p22
aS'com.android.launcher.permission.INSTALL_SHORTCUT'
p23
aS'org.openintents.ssh.permission.ACCESS_SSH_AGENT'
p24
aS'android.permission.WRITE_CALL_LOG'
p25
aS'android.permission.CHANGE_WIFI_MULTICAST_STATE'
p26
aS'android.permission.ACCESS_GPS'
p27
aS'info.guardianproject.otr.app.providers.imps.permission.READ_ONLY'
p28
aS'org.kontalk.permission.C2D_MESSAGE'
p29
aS'org.projectmaxs.permission.USE_TRANSPORT'
p30
aS'android.permission.BIND_INPUT_METHOD'
p31
aS'android.permission.CHANGE_WIMAX_STATE'
p32
aS'org.mariotaku.twidere.WRITE_DATABASES'
p33
aS'android.permission.WRITE_SYNC_SETTINGS'
p34
aS'com.samsungmobileusa.magnacarta.permission.C2D_MESSAGE'
p35
aS'android.permission.WRITE_USER_DICTIONARY'
p36
aS'com.sonyericsson.extras.liveview.permission.LIVEVIEW_API'
p37
aS'org.mozilla.firefox.permissions.FORMHISTORY_PROVIDER'
p38
aS'org.fdroid.k9.permission.REMOTE_CONTROL'
p39
aS'android.permission.WRITE_GSERVICES'
p40
aS'com.software.application.permission.C2D_MESSAGE'
p41
aS'android.permission.INJECT_EVENTS'
p42
aS'com.fsck.k9.permission.READ_MESSAGES'
p43
aS'org.koxx.k9ForPureWidget.permission.DELETE_MESSAGES'
p44
aS'org.mozilla.firefox_sync.permission.PER_ACCOUNT_TYPE'
p45
aS'android.permission.STORAGE'
p46
aS'ru.gelin.android.weather.notification.START_UPDATE_SERVICE'
p47
aS'android.permission.WRITE_SECURE_SETTINGS'
p48
aS'org.projectmaxs.permission.WRITE_SMS'
p49
aS'android.permission.CALL_PRIVILEGED'
p50
aS'android.permission.READ_OWNER_DATA'
p51
aS'com.dririan.RingyDingyDingy.HANDLE_INTERNAL_COMMAND'
p52
aS'android.permission.SYSTEM_ALERT_WINDOW'
p53
aS'android.permission.ACCESS_LOCATION_EXTRA_COMMANDS'
p54
aS'de.shandschuh.sparserss.READFEEDS'
p55
aS'android.permission.DUMP'
p56
aS'org.eehouse.android.xw4.permission.C2D_MESSAGE'
p57
aS'com.google.android.providers.gmail.permission.READ_GMAIL'
p58
aS'android.permission.MODIFY_PHONE_STATE'
p59
aS'org.fdroid.k9.permission.DELETE_MESSAGES'
p60
aS'com.kaitenmail.permission.DELETE_MESSAGES'
p61
aS'org.fdroid.k9.permission.READ_MESSAGES'
p62
aS'android.permission.READ_PROFILE'
p63
aS'android.permission.ACCOUNT_MANAGER'
p64
aS'com.google.android.gm.permission.READ_GMAIL'
p65
aS'com.google.android.marvin.feedback.permission.TALKBACK'
p66
aS'android.permission.SET_ANIMATION_SCALE'
p67
aS'fr.xgouchet.texteditor.permission.TED_INTERNAL'
p68
aS'android.permission.SET_PROCESS_LIMIT'
p69
aS'org.servalproject.meshms.SEND_MESHMS'
p70
aS'android.permission.SET_DEBUG_APP'
p71
aS'android.permission.INSTALL_DRM'
p72
aS'android.permission.BLUETOOTH'
p73
aS'android.permission.ACCESS_WIFI_STATE'
p74
aS'android.permission.SET_WALLPAPER_HINTS'
p75
aS'com.kaitenmail.permission.READ_MESSAGES'
p76
aS'com.sec.android.provider.logsprovider.permission.READ_LOGS'
p77
aS'org.projectmaxs.permission.USE_FILEREAD'
p78
aS'android.permission.CONTROL_LOCATION_UPDATES'
p79
aS'android.permission.GLOBAL_SEARCH_CONTROL'
p80
aS'org.koxx.k9ForPureWidget.permission.READ_MESSAGES'
p81
aS'android.permission.REBOOT'
p82
aS'android.permission.BROADCAST_WAP_PUSH'
p83
aS'android.permission.ACCESS_NETWORK_STATE'
p84
aS'android.permission.STATUS_BAR'
p85
aS'com.google.android.gm.permission.READ_CONTENT_PROVIDER'
p86
aS'com.android.browser.permission.READ_HISTORY_BOOKMARKS'
p87
aS'com.htc.launcher.permission.READ_SETTINGS'
p88
aS'android.permission.CHANGE_WIFI_STATE'
p89
aS'com.android.vending.CHECK_LICENSE'
p90
aS'android.permission.MOUNT_FORMAT_FILESYSTEMS'
p91
aS'org.projectmaxs.permission.USE_MODULE'
p92
aS'com.dririan.RingyDingyDingy.HANDLE_COMMAND'
p93
aS'org.fdroid.k9.permission.READ_ATTACHMENT'
p94
aS'android.permission.WRITE_CONTACTS'
p95
aS'com.umang.dashnotifier.CP_PERMISSION'
p96
aS'android.permission.READ_CONTACTS'
p97
aS'android.permission.BIND_APPWIDGET'
p98
aS'com.fsck.k9.permission.DELETE_MESSAGES'
p99
aS'android.permission.ACCESS_LOCATION'
p100
aS'android.permission.SIGNAL_PERSISTENT_PROCESSES'
p101
aS'android.permission.INSTALL_LOCATION_PROVIDER'
p102
aS'com.beem.project.beem.BEEM_SERVICE'
p103
aS'android.permission.PERMISSION_NAME'
p104
aS'android.permission.ACCESS_DOWNLOAD_MANAGER_ADVANCED'
p105
aS'android.permission.WRITE_SETTINGS'
p106
aS'android.permission.MASTER_CLEAR'
p107
aS'android.permission.READ_INPUT_STATE'
p108
aS'org.projectmaxs.permission.READ_CONTACTS'
p109
aS'com.google.android.apps.iosched.permission.C2D_MESSAGE'
p110
aS'android.permission.MANAGE_APP_TOKENS'
p111
aS'com.motorola.launcher.permission.READ_SETTINGS'
p112
aS'com.android.email.permission.ACCESS_PROVIDER'
p113
aS'android.permission.WRITE_SECURE'
p114
aS'com.google.android.marvin.talkback.PERMISSION_SEND_INTENT_BROADCAST_COMMANDS_TO_TALKBACK'
p115
aS'com.a209689805250bfb0110b9532a.a93269867a.permission.C2D_MESSAGE'
p116
aS'android.permission.ACCESS_WIMAX_STATE'
p117
aS'com.android.launcher.permission.WRITE_SETTINGS'
p118
aS'android.permission.RECORD_AUDIO'
p119
aS'org.projectmaxs.permission.USE_MAIN_AS_MODULE'
p120
aS'i4nc4mp.myLock.permission.toggle'
p121
aS'android.permission.RECORD_VIDEO'
p122
aS'android.permission.WRITE_APN_SETTINGS'
p123
aS'android.permission.ACCESS_SURFACE_FLINGER'
p124
aS'com.dririan.RingyDingyDingy.EXECUTE_COMMAND'
p125
aS'android.permission.FACTORY_TEST'
p126
aS'android.permission.READ_SECURE_SETTINGS'
p127
aS'android.permission.READ_LOGS'
p128
aS'android.permission.PROCESS_OUTGOING_CALLS'
p129
aS'android.permission.UPDATE_DEVICE_STATS'
p130
aS'android.permission.SEND_DOWNLOAD_COMPLETED_INTENTS'
p131
aS'android.permission.ACCESS_COURSE_LOCATION'
p132
aS'android.permission.SET_PREFERRED_APPLICATIONS'
p133
aS'android.permission.WRITE_CALENDAR'
p134
aS'org.dmfs.permission.READ_TASKS'
p135
aS'org.mozilla.firefox.permissions.BROWSER_PROVIDER'
p136
aS'org.projectmaxs.permission.USE_MAIN'
p137
aS'com.android.vending.BILLING'
p138
aS'com.android.launcher.permission.READ_SETTINGS'
p139
aS'android.permission.NFC'
p140
aS'android.permission.MANAGE_ACCOUNTS'
p141
aS'android.permission.SEND_SMS'
p142
aS'com.google.android.providers.talk.permission.READ_ONLY'
p143
aS'android.permission.ACCESS_MOCK_LOCATION'
p144
aS'android.permission.BIND_ACCESSIBILITY_SERVICE'
p145
aS'android.permission.SET_TIME_ZONE'
p146
aS'com.google.android.apps.dashclock.permission.READ_EXTENSION_DATA'
p147
aS'org.dmfs.permission.WRITE_TASKS'
p148
aS'android.permission.WRITE_SMS'
p149
aS'org.tint.permissions.services.ADDONS'
p150
aS'android.permission.GET_TASKS'
p151
aS'android.permission.DELETE_PACKAGES'
p152
aS'android.permission.ACCESS_CHECKIN_PROPERTIES'
p153
aS'net.jjc1138.android.scrobbler.privateservices'
p154
aS'android.permission.DOWNLOAD_WITHOUT_NOTIFICATION'
p155
aS'android.permission.RECEIVE_BOOT_COMPLETED'
p156
aS'com.google.android.gtalkservice.permission.GTALK_SERVICE'
p157
aS'android.permission.VIBRATE'
p158
aS'android.permission.DIAGNOSTIC'
p159
aS'android.permission.RECEIVE_SMS'
p160
aS'android.permission.CALL_PHONE'
p161
aS'android.permission.FLASHLIGHT'
p162
aS'android.permission.READ_PHONE_STATE'
p163
aS'android.permission.CHANGE_COMPONENT_ENABLED_STATE'
p164
aS'android.permission.BRICK'
p165
aS'com.motorola.launcher.permission.INSTALL_SHORTCUT'
p166
aS'com.google.android.googleapps.permission.GOOGLE_AUTH.talk'
p167
aS'android.permission.ACCESS_SUPERUSER'
p168
aS'com.androzic.permission.RECEIVE_LOCATION'
p169
aS'android.permission.BROADCAST_SMS'
p170
aS'de.shandschuh.sparserss.WRITEFEEDS'
p171
aS'android.permission.KILL_BACKGROUND_PROCESSES'
p172
aS'android.permission.READ_MEDIA_STORAGE'
p173
aS'android.permission.SUBSCRIBED_FEEDS_WRITE'
p174
aS'android.permission.CAMERA'
p175
aS'android.permission.RECEIVE_MMS'
p176
aS'android.permission.WAKE_LOCK'
p177
aS'android.permission.ACCESS_DOWNLOAD_MANAGER'
p178
aS'com.androzic.permission.RECEIVE_TRACK'
p179
aS'android.permission.DELETE_CACHE_FILES'
p180
aS'android.permission.READ_PHONE'
p181
aS'android.permission.RESTART_PACKAGES'
p182
aS'com.google.android.googleapps.permission.GOOGLE_AUTH'
p183
aS'android.permission.GET_ACCOUNTS'
p184
aS'android.permission.SUBSCRIBED_FEEDS_READ'
p185
aS'android.permission.CHANGE_NETWORK_STATE'
p186
aS'android.permission.READ_SYNC_SETTINGS'
p187
aS'android.permission.DISABLE_KEYGUARD'
p188
aS'com.android.launcher.permission.UNINSTALL_SHORTCUT'
p189
aS'android.permission.USE_CREDENTIALS'
p190
aS'android.permission.ACCESS_CACHE_FILESYSTEM'
p191
aS'android.permission.READ_USER_DICTIONARY'
p192
aS'android.permission.WRITE_OWNER_DATA'
p193
aS'android.permission.WRITE_MEDIA_STORAGE'
p194
aS'com.motorola.dlauncher.permission.READ_SETTINGS'
p195
aS'org.projectmaxs.permission.USE_OUTGOING_FILETRANSFER_SERVICE'
p196
aS'android.permission.ACCESS_COARSE_LOCATION'
p197
aS'org.gnucash.android.permission.CREATE_ACCOUNT'
p198
aS'com.mominis.permission.preferences.provider.READ_WRITE'
p199
aS'com.android.email.permission.READ_ATTACHMENT'
p200
aS'com.androzic.permission.NAVIGATION'
p201
aS'android.permission.BACKUP'
p202
aS'com.lge.launcher.permission.READ_SETTINGS'
p203
aS'android.permission.EXPAND_STATUS_BAR'
p204
aS'android.permission.BLUETOOTH_ADMIN'
p205
aS'android.permission.ACCESS_FINE_LOCATION'
p206
aS'android.permission.PERSISTENT_ACTIVITY'
p207
aS'org.servalproject.rhizome.RECEIVE_FILE'
p208
aS'android.permission.SET_ALARM'
p209
aS'at.tomtasche.reader.DOCUMENT_CHANGED'
p210
aS'android.permission.RECEIVE_WAP_PUSH'
p211
aS'com.google.android.c2dm.permission.RECEIVE'
p212
aS'archos.permission.FULLSCREEN.FULL'
p213
aS'org.projectmaxs.permission.USE_FILEWRITE'
p214
aS'android.permission.SET_WALLPAPER'
p215
aS'android.permission.READ_CALL_LOG'
p216
aS'android.permission.BROADCAST_PACKAGE_REMOVED'
p217
aS'org.projectmaxs.permission.USE_MAIN_AS_TRANSPORT'
p218
aS'android.permission.COARSE_FINE_LOCATION'
p219
aS'android.permission.SET_ALWAYS_FINISH'
p220
aS'org.projectmaxs.permission.USE_INCOMING_FILETRANSFER_SERVICE'
p221
aS'android.permission.WRITE_EXTERNAL_STORAGE'
p222
aS'android.permission.GET_PACKAGE_SIZE'
p223
aS'com.google.android.apps.googlevoice.permission.RECEIVE_SMS'
p224
aS'android.permission.READ_EXTERNAL_STORAGE'
p225
aS'android.permission.INSTALL_PACKAGES'
p226
aS'android.permission.AUTHENTICATE_ACCOUNTS'
p227
aS'org.mariotaku.twidere.READ_DATABASES'
p228
aS'info.guardianproject.otr.app.providers.imps.permission.WRITE_ONLY'
p229
aS'com.android.alarm.permission.SET_ALARM'
p230
aS'android.permission.INTERNAL_SYSTEM_WINDOW'
p231
aS'android.permission.CLEAR_APP_CACHE'
p232
aS'com.cyanogenmod.filemanager.permissions.READ_THEME'
p233
aS'android.permission.MODIFY_AUDIO_SETTINGS'
p234
aS'android.permission.SET_ORIENTATION'
p235
aS'android.permission.SET_ACTIVITY_WATCHER'
p236
aS'org.mozilla.firefox.permissions.PASSWORD_PROVIDER'
p237
aS'android.permission.READ_SMS'
p238
aS'android.permission.BATTERY_STATS'
p239
aS'android.permission.GLOBAL_SEARCH'
p240
aS'org.thialfihar.android.apg.permission.READ_KEY_DETAILS'
p241
aS'com.fede.launcher.permission.READ_SETTINGS'
p242
aS'org.adw.launcher.permission.READ_SETTINGS'
p243
aS'org.mariotaku.twidere.ACCESS_SERVICE'
p244
aS'android.permission.REORDER_TASKS'
p245
aS'org.adw.launcher.permission.WRITE_SETTINGS'
p246
aS'org.mozilla.firefox.permission.PER_ANDROID_PACKAGE'
p247
aS'android.permission.ACCESS_DRM'
p248
aS'info.guardianproject.otr.app.im.permission.IM_SERVICE'
p249
aS'com.fsck.k9.permission.READ_ATTACHMENT'
p250
aS'android.permission.BROADCAST_STICKY'
p251
aS'android.permission.MOUNT_UNMOUNT_FILESYSTEMS'
p252
aS'com.sec.android.provider.logsprovider.permission.WRITE_LOGS'
p253
aS'com.fsck.k9.permission.REMOTE_CONTROL'
p254
a.